; Function Attrs: mustprogress nounwind uwtable
define hidden noundef range(i32 -3, 1) i32 @_ZN15PlatformMonitor4waitEm(ptr noundef nonnull align 8 dereferenceable(88) %0, i64 noundef %1) local_unnamed_addr #1 align 2 {
  %3 = alloca %struct.timespec, align 8
  %4 = alloca %struct.timespec, align 8
  %.not = icmp eq i64 %1, 0
  br i1 %.not, label %29, label %5

5:                                                ; preds = %2
  %6 = icmp ugt i64 %1, 100000000999
  %7 = mul nuw nsw i64 %1, 1000000
  %8 = select i1 %6, i64 100000000000000000, i64 %7
  call void @llvm.lifetime.start.p0(i64 16, ptr nonnull %3)
  %.b8.i = load i1, ptr @_ZL29_use_clock_monotonic_condattr, align 1
  %..i = zext i1 %.b8.i to i32
  %9 = call i32 @clock_gettime(i32 noundef %..i, ptr noundef nonnull %3) #25
  %10 = load i64, ptr %3, align 8
  %11 = icmp ugt i64 %8, 99999999999999999
  br i1 %11, label %12, label %14

12:                                               ; preds = %5
  %13 = add nsw i64 %10, 100000000
  store i64 %13, ptr %4, align 8
  br label %_ZL10to_abstimeP8timespeclbb.exit

14:                                               ; preds = %5
  %15 = getelementptr inbounds i8, ptr %3, i64 8
  %16 = load i64, ptr %15, align 8
  %17 = udiv i64 %8, 1000000000
  %18 = urem i64 %8, 1000000000
  %19 = add nsw i64 %10, %17
  store i64 %19, ptr %4, align 8
  %20 = add nsw i64 %16, %18
  %21 = icmp sgt i64 %20, 999999999
  br i1 %21, label %22, label %_ZL10to_abstimeP8timespeclbb.exit

22:                                               ; preds = %14
  %23 = add nsw i64 %19, 1
  store i64 %23, ptr %4, align 8
  %24 = add nsw i64 %20, -1000000000
  br label %_ZL10to_abstimeP8timespeclbb.exit

_ZL10to_abstimeP8timespeclbb.exit:                ; preds = %12, %14, %22
  %.sink.i.sink.i = phi i64 [ 0, %12 ], [ %24, %22 ], [ %20, %14 ]
  %25 = getelementptr inbounds i8, ptr %4, i64 8
  store i64 %.sink.i.sink.i, ptr %25, align 8
  call void @llvm.lifetime.end.p0(i64 16, ptr nonnull %3)
  %26 = getelementptr inbounds i8, ptr %0, i64 40
  %27 = call i32 @pthread_cond_timedwait(ptr noundef nonnull %26, ptr noundef nonnull %0, ptr noundef nonnull %4) #25
  %28 = icmp eq i32 %27, 0
  %spec.select = select i1 %28, i32 0, i32 -3
  br label %32

29:                                               ; preds = %2
  %30 = getelementptr inbounds i8, ptr %0, i64 40
  %31 = tail call i32 @pthread_cond_wait(ptr noundef nonnull %30, ptr noundef nonnull %0) #25
  br label %32

32:                                               ; preds = %29, %_ZL10to_abstimeP8timespeclbb.exit
  %.0 = phi i32 [ %spec.select, %_ZL10to_abstimeP8timespeclbb.exit ], [ 0, %29 ]
  ret i32 %.0
}